
main.o:     file format elf32-i386


Disassembly of section .text:

00000000 <_start>:
   0:	b8 ac 00 00 00       	mov    $0xac,%eax
   5:	e8 00 00 00 00       	call   a <_start+0xa>
   a:	c7 05 4b 00 00 00 10 	movl   $0x10,0x4b
  11:	00 00 00 
  14:	c7 05 4f 00 00 00 01 	movl   $0x1,0x4f
  1b:	00 00 00 
  1e:	b8 02 01 00 00       	mov    $0x102,%eax
  23:	e8 a6 00 00 00       	call   ce <main_string+0x22>
  28:	89 c3                	mov    %eax,%ebx
  2a:	b8 00 00 00 00       	mov    $0x0,%eax

0000002f <loop1>:
  2f:	c7 05 4b 00 00 00 02 	movl   $0x2,0x4b
  36:	00 00 00 
  39:	c7 05 4f 00 00 00 08 	movl   $0x8,0x4f
  40:	00 00 00 
  43:	e8 93 00 00 00       	call   db <main_string+0x2f>
  48:	e8 0c 01 00 00       	call   159 <putstr_and_line+0x5>
  4d:	c7 05 4b 00 00 00 10 	movl   $0x10,0x4b
  54:	00 00 00 
  57:	c7 05 4f 00 00 00 02 	movl   $0x2,0x4f
  5e:	00 00 00 
  61:	e8 93 00 00 00       	call   f9 <main_string+0x4d>
  66:	e8 0c 01 00 00       	call   177 <putstr_and_line+0x23>
  6b:	c7 05 4b 00 00 00 0a 	movl   $0xa,0x4b
  72:	00 00 00 
  75:	c7 05 4f 00 00 00 03 	movl   $0x3,0x4f
  7c:	00 00 00 
  7f:	e8 93 00 00 00       	call   117 <putspace+0x7>
  84:	3c 20                	cmp    $0x20,%al
  86:	72 0e                	jb     96 <not_char>
  88:	3c 7e                	cmp    $0x7e,%al
  8a:	77 0a                	ja     96 <not_char>
  8c:	e8 0c 01 00 00       	call   19d <putstr_and_line+0x49>
  91:	e8 28 01 00 00       	call   1be <putstr_and_line+0x6a>

00000096 <not_char>:
  96:	e8 19 01 00 00       	call   1b4 <putstr_and_line+0x60>
  9b:	40                   	inc    %eax
  9c:	39 d8                	cmp    %ebx,%eax
  9e:	75 8f                	jne    2f <loop1>
  a0:	b8 01 00 00 00       	mov    $0x1,%eax
  a5:	bb 00 00 00 00       	mov    $0x0,%ebx
  aa:	cd 80                	int    $0x80

000000ac <main_string>:
  ac:	54                   	push   %esp
  ad:	68 69 73 20 70       	push   $0x70207369
  b2:	72 6f                	jb     123 <putline+0x6>
  b4:	67 72 61             	addr16 jb 118 <putspace+0x8>
  b7:	6d                   	insl   (%dx),%es:(%edi)
  b8:	20 69 73             	and    %ch,0x73(%ecx)
  bb:	20 74 68 65          	and    %dh,0x65(%eax,%ebp,2)
  bf:	20 6f 66             	and    %ch,0x66(%edi)
  c2:	66 69 63 69 61 6c    	imul   $0x6c61,0x69(%ebx),%sp
  c8:	20 74 65 73          	and    %dh,0x73(%ebp,%eiz,2)
  cc:	74 20                	je     ee <main_string+0x42>
  ce:	73 75                	jae    145 <putint_and_space+0x7>
  d0:	69 74 65 20 66 6f 72 	imul   $0x20726f66,0x20(%ebp,%eiz,2),%esi
  d7:	20 
  d8:	74 68                	je     142 <putint_and_space+0x4>
  da:	65 20 4c 69 6e       	and    %cl,%gs:0x6e(%ecx,%ebp,2)
  df:	75 78                	jne    159 <putstr_and_line+0x5>
  e1:	20 41 73             	and    %al,0x73(%ecx)
  e4:	73 65                	jae    14b <putint_and_line+0x2>
  e6:	6d                   	insl   (%dx),%es:(%edi)
  e7:	62 6c 79 20          	bound  %ebp,0x20(%ecx,%edi,2)
  eb:	76 65                	jbe    152 <putint_and_line+0x9>
  ed:	72 73                	jb     162 <putstr_and_line+0xe>
  ef:	69 6f 6e 20 6f 66 20 	imul   $0x20666f20,0x6e(%edi),%ebp
  f6:	63 68 61             	arpl   %bp,0x61(%eax)
  f9:	73 74                	jae    16f <putstr_and_line+0x1b>
  fb:	65 6c                	gs insb (%dx),%es:(%edi)
  fd:	69 62 2e 0a 00   	imul   $0x3031000a,0x2e(%edx),%esp

00000102 <input_string_int>:
 102:	31 30                	xor    %esi,(%eax)
 104:	30 00                	xor    %al,(%eax)
