
main.o:     file format elf32-i386


Disassembly of section .text:

00000000 <_start>:
   0:	b8 b3 00 00 00       	mov    $0xb3,%eax
   5:	e8 00 00 00 00       	call   a <_start+0xa>
   a:	c7 05 4c 00 00 00 10 	movl   $0x10,0x4c
  11:	00 00 00 
  14:	c7 05 50 00 00 00 01 	movl   $0x1,0x50
  1b:	00 00 00 
  1e:	c6 05 4a 00 00 00 00 	movb   $0x0,0x4a
  25:	b8 09 01 00 00       	mov    $0x109,%eax
  2a:	e8 a7 00 00 00       	call   d6 <main_string+0x23>
  2f:	89 c3                	mov    %eax,%ebx
  31:	b8 00 00 00 00       	mov    $0x0,%eax

00000036 <loop1>:
  36:	c7 05 4c 00 00 00 02 	movl   $0x2,0x4c
  3d:	00 00 00 
  40:	c7 05 50 00 00 00 08 	movl   $0x8,0x50
  47:	00 00 00 
  4a:	e8 94 00 00 00       	call   e3 <main_string+0x30>
  4f:	e8 0d 01 00 00       	call   161 <putchar+0x34>
  54:	c7 05 4c 00 00 00 10 	movl   $0x10,0x4c
  5b:	00 00 00 
  5e:	c7 05 50 00 00 00 02 	movl   $0x2,0x50
  65:	00 00 00 
  68:	e8 94 00 00 00       	call   101 <main_string+0x4e>
  6d:	e8 0d 01 00 00       	call   17f <putchar+0x52>
  72:	c7 05 4c 00 00 00 0a 	movl   $0xa,0x4c
  79:	00 00 00 
  7c:	c7 05 50 00 00 00 03 	movl   $0x3,0x50
  83:	00 00 00 
  86:	e8 94 00 00 00       	call   11f <putline+0x1>
  8b:	3c 20                	cmp    $0x20,%al
  8d:	72 0e                	jb     9d <not_char>
  8f:	3c 7e                	cmp    $0x7e,%al
  91:	77 0a                	ja     9d <not_char>
  93:	e8 0d 01 00 00       	call   1a5 <putchar+0x78>
  98:	e8 29 01 00 00       	call   1c6 <putchar+0x99>

0000009d <not_char>:
  9d:	e8 1a 01 00 00       	call   1bc <putchar+0x8f>
  a2:	40                   	inc    %eax
  a3:	39 d8                	cmp    %ebx,%eax
  a5:	75 8f                	jne    36 <loop1>
  a7:	b8 01 00 00 00       	mov    $0x1,%eax
  ac:	bb 00 00 00 00       	mov    $0x0,%ebx
  b1:	cd 80                	int    $0x80

000000b3 <main_string>:
  b3:	54                   	push   %esp
  b4:	68 69 73 20 70       	push   $0x70207369
  b9:	72 6f                	jb     12a <putline+0xc>
  bb:	67 72 61             	addr16 jb 11f <putline+0x1>
  be:	6d                   	insl   (%dx),%es:(%edi)
  bf:	20 69 73             	and    %ch,0x73(%ecx)
  c2:	20 74 68 65          	and    %dh,0x65(%eax,%ebp,2)
  c6:	20 6f 66             	and    %ch,0x66(%edi)
  c9:	66 69 63 69 61 6c    	imul   $0x6c61,0x69(%ebx),%sp
  cf:	20 74 65 73          	and    %dh,0x73(%ebp,%eiz,2)
  d3:	74 20                	je     f5 <main_string+0x42>
  d5:	73 75                	jae    14c <putchar+0x1f>
  d7:	69 74 65 20 66 6f 72 	imul   $0x20726f66,0x20(%ebp,%eiz,2),%esi
  de:	20 
  df:	74 68                	je     149 <putchar+0x1c>
  e1:	65 20 4c 69 6e       	and    %cl,%gs:0x6e(%ecx,%ebp,2)
  e6:	75 78                	jne    160 <putchar+0x33>
  e8:	20 41 73             	and    %al,0x73(%ecx)
  eb:	73 65                	jae    152 <putchar+0x25>
  ed:	6d                   	insl   (%dx),%es:(%edi)
  ee:	62 6c 79 20          	bound  %ebp,0x20(%ecx,%edi,2)
  f2:	76 65                	jbe    159 <putchar+0x2c>
  f4:	72 73                	jb     169 <putchar+0x3c>
  f6:	69 6f 6e 20 6f 66 20 	imul   $0x20666f20,0x6e(%edi),%ebp
  fd:	63 68 61             	arpl   %bp,0x61(%eax)
 100:	73 74                	jae    176 <putchar+0x49>
 102:	65 6c                	gs insb (%dx),%es:(%edi)
 104:	69 62 2e 0a 00   	imul   $0x3031000a,0x2e(%edx),%esp

00000109 <input_string_int>:
 109:	31 30                	xor    %esi,(%eax)
 10b:	30 00                	xor    %al,(%eax)
